target datalayout = "e-m:e-p270:32:32-p271:32:32-p272:64:64-i64:64-i128:128-f80:128-n8:16:32:64-S128"
target triple = "x86_64-pc-linux-gnu"

%"class.icu_77::MaybeStackArray" = type <{ ptr, i32, i8, [40 x i8], [3 x i8] }>
%"class.icu_77::CharString" = type { %"class.icu_77::MaybeStackArray", i32, [4 x i8] }

@_ZN6icu_7715MaybeStackArrayIcLi40EED1Ev = weak_odr unnamed_addr alias void (ptr), ptr @_ZN6icu_7715MaybeStackArrayIcLi40EED2Ev

; Function Attrs: mustprogress nounwind uwtable
define linkonce_odr void @_ZN6icu_7710CharStringD2Ev(ptr noundef nonnull align 8 dereferenceable(60) %0) unnamed_addr #0 comdat align 2 {
  %2 = alloca ptr, align 8
  store ptr %0, ptr %2, align 8, !tbaa !23
  %3 = load ptr, ptr %2, align 8
  %4 = getelementptr inbounds nuw %"class.icu_77::CharString", ptr %3, i32 0, i32 0
  call void @_ZN6icu_7715MaybeStackArrayIcLi40EED1Ev(ptr noundef nonnull align 8 dereferenceable(53) %4) #11
  ret void
}

; Function Attrs: mustprogress nounwind uwtable
define weak_odr noundef nonnull align 1 dereferenceable(1) ptr @_ZN6icu_7715MaybeStackArrayIcLi40EEixEl(ptr noundef nonnull align 8 dereferenceable(53) %0, i64 noundef %1) #0 comdat align 2 {
  %3 = alloca ptr, align 8
  %4 = alloca i64, align 8
  store ptr %0, ptr %3, align 8, !tbaa !3
  store i64 %1, ptr %4, align 8, !tbaa !18
  %5 = load ptr, ptr %3, align 8
  %6 = getelementptr inbounds nuw %"class.icu_77::MaybeStackArray", ptr %5, i32 0, i32 0
  %7 = load ptr, ptr %6, align 8, !tbaa !8
  %8 = load i64, ptr %4, align 8, !tbaa !18
  %9 = getelementptr inbounds i8, ptr %7, i64 %8
  ret ptr %9
}

; Function Attrs: mustprogress nounwind uwtable
define weak_odr noundef i32 @_ZNK6icu_7715MaybeStackArrayIcLi40EE11getCapacityEv(ptr noundef nonnull align 8 dereferenceable(53) %0) #0 comdat align 2 {
  %2 = alloca ptr, align 8
  store ptr %0, ptr %2, align 8, !tbaa !3
  %3 = load ptr, ptr %2, align 8
  %4 = getelementptr inbounds nuw %"class.icu_77::MaybeStackArray", ptr %3, i32 0, i32 1
  %5 = load i32, ptr %4, align 8, !tbaa !12
  ret i32 %5
}

; Function Attrs: mustprogress nounwind uwtable
define weak_odr noundef ptr @_ZNK6icu_7715MaybeStackArrayIcLi40EE8getAliasEv(ptr noundef nonnull align 8 dereferenceable(53) %0) #0 comdat align 2 {
  %2 = alloca ptr, align 8
  store ptr %0, ptr %2, align 8, !tbaa !3
  %3 = load ptr, ptr %2, align 8
  %4 = getelementptr inbounds nuw %"class.icu_77::MaybeStackArray", ptr %3, i32 0, i32 0
  %5 = load ptr, ptr %4, align 8, !tbaa !8
  ret ptr %5
}

; Function Attrs: inlinehint mustprogress nounwind uwtable
define internal noundef signext i8 @_ZL9U_FAILURE10UErrorCode(i32 noundef %0) #2 {
  %2 = alloca i32, align 4
  store i32 %0, ptr %2, align 4, !tbaa !15
  %3 = load i32, ptr %2, align 4, !tbaa !15
  %4 = icmp sgt i32 %3, 0
  %5 = zext i1 %4 to i8
  ret i8 %5
}

; Function Attrs: mustprogress uwtable
define noundef nonnull align 8 dereferenceable(60) ptr @_ZN6icu_7710CharString6appendEPKciR10UErrorCode(ptr noundef nonnull align 8 dereferenceable(60) %0, ptr noundef %1, i32 noundef %2, ptr noundef nonnull align 4 dereferenceable(4) %3) #1 align 2 personality ptr @__gxx_personality_v0 {
  %5 = alloca ptr, align 8
  %6 = alloca ptr, align 8
  %7 = alloca ptr, align 8
  %8 = alloca i32, align 4
  %9 = alloca ptr, align 8
  %10 = alloca %"class.icu_77::CharString", align 8
  %11 = alloca ptr, align 8
  %12 = alloca i32, align 4
  store ptr %0, ptr %6, align 8, !tbaa !23
  store ptr %1, ptr %7, align 8, !tbaa !17
  store i32 %2, ptr %8, align 4, !tbaa !14
  store ptr %3, ptr %9, align 8, !tbaa !22
  %13 = load ptr, ptr %6, align 8
  %14 = load ptr, ptr %9, align 8, !tbaa !22
  %15 = load i32, ptr %14, align 4, !tbaa !15
  %16 = call noundef signext i8 @_ZL9U_FAILURE10UErrorCode(i32 noundef %15)
  %17 = icmp ne i8 %16, 0
  br i1 %17, label %18, label %19

18:                                               ; preds = %4
  store ptr %13, ptr %5, align 8
  br label %133

19:                                               ; preds = %4
  %20 = load i32, ptr %8, align 4, !tbaa !14
  %21 = icmp slt i32 %20, -1
  br i1 %21, label %28, label %22

22:                                               ; preds = %19
  %23 = load ptr, ptr %7, align 8, !tbaa !17
  %24 = icmp eq ptr %23, null
  br i1 %24, label %25, label %30

25:                                               ; preds = %22
  %26 = load i32, ptr %8, align 4, !tbaa !14
  %27 = icmp ne i32 %26, 0
  br i1 %27, label %28, label %30

28:                                               ; preds = %25, %19
  %29 = load ptr, ptr %9, align 8, !tbaa !22
  store i32 1, ptr %29, align 4, !tbaa !15
  store ptr %13, ptr %5, align 8
  br label %133

30:                                               ; preds = %25, %22
  %31 = load i32, ptr %8, align 4, !tbaa !14
  %32 = icmp slt i32 %31, 0
  br i1 %32, label %33, label %37

33:                                               ; preds = %30
  %34 = load ptr, ptr %7, align 8, !tbaa !17
  %35 = call i64 @strlen(ptr noundef %34) #14
  %36 = trunc i64 %35 to i32
  store i32 %36, ptr %8, align 4, !tbaa !14
  br label %37

37:                                               ; preds = %33, %30
  %38 = load i32, ptr %8, align 4, !tbaa !14
  %39 = icmp sgt i32 %38, 0
  br i1 %39, label %40, label %132

40:                                               ; preds = %37
  %41 = load ptr, ptr %7, align 8, !tbaa !17
  %42 = getelementptr inbounds nuw %"class.icu_77::CharString", ptr %13, i32 0, i32 0
  %43 = call noundef ptr @_ZNK6icu_7715MaybeStackArrayIcLi40EE8getAliasEv(ptr noundef nonnull align 8 dereferenceable(53) %42)
  %44 = getelementptr inbounds nuw %"class.icu_77::CharString", ptr %13, i32 0, i32 1
  %45 = load i32, ptr %44, align 8, !tbaa !25
  %46 = sext i32 %45 to i64
  %47 = getelementptr inbounds i8, ptr %43, i64 %46
  %48 = icmp eq ptr %41, %47
  br i1 %48, label %49, label %68

49:                                               ; preds = %40
  %50 = load i32, ptr %8, align 4, !tbaa !14
  %51 = getelementptr inbounds nuw %"class.icu_77::CharString", ptr %13, i32 0, i32 0
  %52 = call noundef i32 @_ZNK6icu_7715MaybeStackArrayIcLi40EE11getCapacityEv(ptr noundef nonnull align 8 dereferenceable(53) %51)
  %53 = getelementptr inbounds nuw %"class.icu_77::CharString", ptr %13, i32 0, i32 1
  %54 = load i32, ptr %53, align 8, !tbaa !25
  %55 = sub nsw i32 %52, %54
  %56 = icmp sge i32 %50, %55
  br i1 %56, label %57, label %59

57:                                               ; preds = %49
  %58 = load ptr, ptr %9, align 8, !tbaa !22
  store i32 5, ptr %58, align 4, !tbaa !15
  br label %67

59:                                               ; preds = %49
  %60 = getelementptr inbounds nuw %"class.icu_77::CharString", ptr %13, i32 0, i32 0
  %61 = load i32, ptr %8, align 4, !tbaa !14
  %62 = getelementptr inbounds nuw %"class.icu_77::CharString", ptr %13, i32 0, i32 1
  %63 = load i32, ptr %62, align 8, !tbaa !25
  %64 = add nsw i32 %63, %61
  store i32 %64, ptr %62, align 8, !tbaa !25
  %65 = sext i32 %64 to i64
  %66 = call noundef nonnull align 1 dereferenceable(1) ptr @_ZN6icu_7715MaybeStackArrayIcLi40EEixEl(ptr noundef nonnull align 8 dereferenceable(53) %60, i64 noundef %65)
  store i8 0, ptr %66, align 1, !tbaa !27
  br label %67

67:                                               ; preds = %59, %57
  br label %131

68:                                               ; preds = %40
  %69 = getelementptr inbounds nuw %"class.icu_77::CharString", ptr %13, i32 0, i32 0
  %70 = call noundef ptr @_ZNK6icu_7715MaybeStackArrayIcLi40EE8getAliasEv(ptr noundef nonnull align 8 dereferenceable(53) %69)
  %71 = load ptr, ptr %7, align 8, !tbaa !17
  %72 = icmp ule ptr %70, %71
  br i1 %72, label %73, label %101

73:                                               ; preds = %68
  %74 = load ptr, ptr %7, align 8, !tbaa !17
  %75 = getelementptr inbounds nuw %"class.icu_77::CharString", ptr %13, i32 0, i32 0
  %76 = call noundef ptr @_ZNK6icu_7715MaybeStackArrayIcLi40EE8getAliasEv(ptr noundef nonnull align 8 dereferenceable(53) %75)
  %77 = getelementptr inbounds nuw %"class.icu_77::CharString", ptr %13, i32 0, i32 1
  %78 = load i32, ptr %77, align 8, !tbaa !25
  %79 = sext i32 %78 to i64
  %80 = getelementptr inbounds i8, ptr %76, i64 %79
  %81 = icmp ult ptr %74, %80
  br i1 %81, label %82, label %101

82:                                               ; preds = %73
  %83 = load i32, ptr %8, align 4, !tbaa !14
  %84 = getelementptr inbounds nuw %"class.icu_77::CharString", ptr %13, i32 0, i32 0
  %85 = call noundef i32 @_ZNK6icu_7715MaybeStackArrayIcLi40EE11getCapacityEv(ptr noundef nonnull align 8 dereferenceable(53) %84)
  %86 = getelementptr inbounds nuw %"class.icu_77::CharString", ptr %13, i32 0, i32 1
  %87 = load i32, ptr %86, align 8, !tbaa !25
  %88 = sub nsw i32 %85, %87
  %89 = icmp sge i32 %83, %88
  br i1 %89, label %90, label %101

90:                                               ; preds = %82
  call void @llvm.lifetime.start.p0(i64 64, ptr %10) #11
  %91 = load ptr, ptr %7, align 8, !tbaa !17
  %92 = load i32, ptr %8, align 4, !tbaa !14
  %93 = load ptr, ptr %9, align 8, !tbaa !22
  call void @_ZN6icu_7710CharStringC2EPKciR10UErrorCode(ptr noundef nonnull align 8 dereferenceable(60) %10, ptr noundef %91, i32 noundef %92, ptr noundef nonnull align 4 dereferenceable(4) %93)
  %94 = load ptr, ptr %9, align 8, !tbaa !22
  %95 = invoke noundef nonnull align 8 dereferenceable(60) ptr @_ZN6icu_7710CharString6appendERKS0_R10UErrorCode(ptr noundef nonnull align 8 dereferenceable(60) %13, ptr noundef nonnull align 8 dereferenceable(60) %10, ptr noundef nonnull align 4 dereferenceable(4) %94)
          to label %96 unwind label %97

96:                                               ; preds = %90
  store ptr %95, ptr %5, align 8
  call void @_ZN6icu_7710CharStringD2Ev(ptr noundef nonnull align 8 dereferenceable(60) %10) #11
  call void @llvm.lifetime.end.p0(i64 64, ptr %10) #11
  br label %133

97:                                               ; preds = %90
  %98 = landingpad { ptr, i32 }
          cleanup
  %99 = extractvalue { ptr, i32 } %98, 0
  store ptr %99, ptr %11, align 8
  %100 = extractvalue { ptr, i32 } %98, 1
  store i32 %100, ptr %12, align 4
  call void @_ZN6icu_7710CharStringD2Ev(ptr noundef nonnull align 8 dereferenceable(60) %10) #11
  call void @llvm.lifetime.end.p0(i64 64, ptr %10) #11
  br label %135

101:                                              ; preds = %82, %73, %68
  %102 = getelementptr inbounds nuw %"class.icu_77::CharString", ptr %13, i32 0, i32 1
  %103 = load i32, ptr %102, align 8, !tbaa !25
  %104 = load i32, ptr %8, align 4, !tbaa !14
  %105 = add nsw i32 %103, %104
  %106 = add nsw i32 %105, 1
  %107 = load ptr, ptr %9, align 8, !tbaa !22
  %108 = call noundef signext i8 @_ZN6icu_7710CharString14ensureCapacityEiiR10UErrorCode(ptr noundef nonnull align 8 dereferenceable(60) %13, i32 noundef %106, i32 noundef 0, ptr noundef nonnull align 4 dereferenceable(4) %107)
  %109 = icmp ne i8 %108, 0
  br i1 %109, label %110, label %129

110:                                              ; preds = %101
  br label %111

111:                                              ; preds = %110
  %112 = getelementptr inbounds nuw %"class.icu_77::CharString", ptr %13, i32 0, i32 0
  %113 = call noundef ptr @_ZNK6icu_7715MaybeStackArrayIcLi40EE8getAliasEv(ptr noundef nonnull align 8 dereferenceable(53) %112)
  %114 = getelementptr inbounds nuw %"class.icu_77::CharString", ptr %13, i32 0, i32 1
  %115 = load i32, ptr %114, align 8, !tbaa !25
  %116 = sext i32 %115 to i64
  %117 = getelementptr inbounds i8, ptr %113, i64 %116
  %118 = load ptr, ptr %7, align 8, !tbaa !17
  %119 = load i32, ptr %8, align 4, !tbaa !14
  %120 = sext i32 %119 to i64
  call void @llvm.memcpy.p0.p0.i64(ptr align 1 %117, ptr align 1 %118, i64 %120, i1 false)
  br label %121

121:                                              ; preds = %111
  %122 = getelementptr inbounds nuw %"class.icu_77::CharString", ptr %13, i32 0, i32 0
  %123 = load i32, ptr %8, align 4, !tbaa !14
  %124 = getelementptr inbounds nuw %"class.icu_77::CharString", ptr %13, i32 0, i32 1
  %125 = load i32, ptr %124, align 8, !tbaa !25
  %126 = add nsw i32 %125, %123
  store i32 %126, ptr %124, align 8, !tbaa !25
  %127 = sext i32 %126 to i64
  %128 = call noundef nonnull align 1 dereferenceable(1) ptr @_ZN6icu_7715MaybeStackArrayIcLi40EEixEl(ptr noundef nonnull align 8 dereferenceable(53) %122, i64 noundef %127)
  store i8 0, ptr %128, align 1, !tbaa !27
  br label %129

129:                                              ; preds = %121, %101
  br label %130

130:                                              ; preds = %129
  br label %131

131:                                              ; preds = %130, %67
  br label %132

132:                                              ; preds = %131, %37
  store ptr %13, ptr %5, align 8
  br label %133

133:                                              ; preds = %132, %96, %28, %18
  %134 = load ptr, ptr %5, align 8
  ret ptr %134

135:                                              ; preds = %97
  %136 = load ptr, ptr %11, align 8
  %137 = load i32, ptr %12, align 4
  %138 = insertvalue { ptr, i32 } poison, ptr %136, 0
  %139 = insertvalue { ptr, i32 } %138, i32 %137, 1
  resume { ptr, i32 } %139
}