; Function Attrs: mustprogress uwtable
define noundef nonnull align 8 dereferenceable(60) ptr @_ZN6icu_7710CharString6appendEPKciR10UErrorCode(ptr noundef nonnull align 8 dereferenceable(60) %0, ptr noundef %1, i32 noundef %2, ptr noundef nonnull align 4 dereferenceable(4) %3) local_unnamed_addr #1 align 2 personality ptr @__gxx_personality_v0 {
  %5 = alloca %"class.icu_77::CharString", align 8
  %6 = load i32, ptr %3, align 4, !tbaa !13
  %7 = icmp slt i32 %6, 1
  br i1 %7, label %8, label %63

8:                                                ; preds = %4
  %9 = icmp slt i32 %2, -1
  br i1 %9, label %13, label %10

10:                                               ; preds = %8
  %11 = icmp eq ptr %1, null
  %12 = icmp ne i32 %2, 0
  %or.cond = and i1 %11, %12
  br i1 %or.cond, label %13, label %14

13:                                               ; preds = %10, %8
  store i32 1, ptr %3, align 4, !tbaa !13
  br label %63

14:                                               ; preds = %10
  %15 = icmp slt i32 %2, 0
  br i1 %15, label %16, label %19

16:                                               ; preds = %14
  %17 = tail call i64 @strlen(ptr noundef nonnull dereferenceable(1) %1) #21
  %18 = trunc i64 %17 to i32
  br label %19

19:                                               ; preds = %16, %14
  %.028 = phi i32 [ %18, %16 ], [ %2, %14 ]
  %20 = icmp sgt i32 %.028, 0
  br i1 %20, label %21, label %63

21:                                               ; preds = %19
  %22 = load ptr, ptr %0, align 8, !tbaa !3
  %23 = getelementptr inbounds nuw i8, ptr %0, i64 56
  %24 = load i32, ptr %23, align 8, !tbaa !15
  %25 = sext i32 %24 to i64
  %26 = getelementptr inbounds i8, ptr %22, i64 %25
  %27 = icmp eq ptr %1, %26
  br i1 %27, label %28, label %37

28:                                               ; preds = %21
  %29 = getelementptr inbounds nuw i8, ptr %0, i64 8
  %30 = load i32, ptr %29, align 8, !tbaa !10
  %31 = sub nsw i32 %30, %24
  %.not34 = icmp slt i32 %.028, %31
  br i1 %.not34, label %33, label %32

32:                                               ; preds = %28
  store i32 5, ptr %3, align 4, !tbaa !13
  br label %63

33:                                               ; preds = %28
  %34 = add nsw i32 %24, %.028
  store i32 %34, ptr %23, align 8, !tbaa !15
  %35 = sext i32 %34 to i64
  %36 = getelementptr inbounds i8, ptr %22, i64 %35
  store i8 0, ptr %36, align 1, !tbaa !17
  br label %63

37:                                               ; preds = %21
  %.not31 = icmp ule ptr %22, %1
  %38 = icmp ult ptr %1, %26
  %or.cond35 = and i1 %.not31, %38
  br i1 %or.cond35, label %39, label %48

39:                                               ; preds = %37
  %40 = getelementptr inbounds nuw i8, ptr %0, i64 8
  %41 = load i32, ptr %40, align 8, !tbaa !10
  %42 = sub nsw i32 %41, %24
  %.not32 = icmp slt i32 %.028, %42
  br i1 %.not32, label %48, label %43

43:                                               ; preds = %39
  call void @llvm.lifetime.start.p0(i64 64, ptr nonnull %5) #18
  call void @_ZN6icu_7710CharStringC2EPKciR10UErrorCode(ptr noundef nonnull align 8 dereferenceable(60) %5, ptr noundef %1, i32 noundef %.028, ptr noundef nonnull align 4 dereferenceable(4) %3)
  %44 = invoke noundef nonnull align 8 dereferenceable(60) ptr @_ZN6icu_7710CharString6appendERKS0_R10UErrorCode(ptr noundef nonnull align 8 dereferenceable(60) %0, ptr noundef nonnull align 8 dereferenceable(60) %5, ptr noundef nonnull align 4 dereferenceable(4) %3)
          to label %45 unwind label %46

45:                                               ; preds = %43
  call void @_ZN6icu_7715MaybeStackArrayIcLi40EED1Ev(ptr noundef nonnull align 8 dereferenceable(60) %5) #18
  call void @llvm.lifetime.end.p0(i64 64, ptr nonnull %5) #18
  br label %63

46:                                               ; preds = %43
  %47 = landingpad { ptr, i32 }
          cleanup
  call void @_ZN6icu_7715MaybeStackArrayIcLi40EED1Ev(ptr noundef nonnull align 8 dereferenceable(60) %5) #18
  call void @llvm.lifetime.end.p0(i64 64, ptr nonnull %5) #18
  resume { ptr, i32 } %47

48:                                               ; preds = %39, %37
  %49 = add nuw i32 %.028, 1
  %50 = add i32 %49, %24
  %51 = tail call noundef signext i8 @_ZN6icu_7710CharString14ensureCapacityEiiR10UErrorCode(ptr noundef nonnull align 8 dereferenceable(60) %0, i32 noundef %50, i32 noundef 0, ptr noundef nonnull align 4 dereferenceable(4) %3)
  %.not33 = icmp eq i8 %51, 0
  br i1 %.not33, label %63, label %52

52:                                               ; preds = %48
  %53 = load ptr, ptr %0, align 8, !tbaa !3
  %54 = load i32, ptr %23, align 8, !tbaa !15
  %55 = sext i32 %54 to i64
  %56 = getelementptr inbounds i8, ptr %53, i64 %55
  %57 = zext nneg i32 %.028 to i64
  tail call void @llvm.memcpy.p0.p0.i64(ptr align 1 %56, ptr align 1 %1, i64 %57, i1 false)
  %58 = load i32, ptr %23, align 8, !tbaa !15
  %59 = add nsw i32 %58, %.028
  store i32 %59, ptr %23, align 8, !tbaa !15
  %60 = sext i32 %59 to i64
  %61 = load ptr, ptr %0, align 8, !tbaa !3
  %62 = getelementptr inbounds i8, ptr %61, i64 %60
  store i8 0, ptr %62, align 1, !tbaa !17
  br label %63

63:                                               ; preds = %19, %52, %48, %32, %33, %4, %45, %13
  %.0 = phi ptr [ %0, %13 ], [ %44, %45 ], [ %0, %4 ], [ %0, %33 ], [ %0, %32 ], [ %0, %48 ], [ %0, %52 ], [ %0, %19 ]
  ret ptr %.0
}